target datalayout = "e-m:e-p270:32:32-p271:32:32-p272:64:64-i64:64-i128:128-f80:128-n8:16:32:64-S128"
target triple = "x86_64-pc-linux-gnu"

%struct.archive_read_disk = type { %struct.archive, ptr, i8, i8, ptr, ptr, ptr, ptr, i32, ptr, ptr, ptr, ptr, ptr, ptr, ptr, ptr, ptr, ptr, ptr }
%struct.archive = type { i32, i32, ptr, i32, ptr, i32, i32, ptr, %struct.archive_string, ptr, i32, i32, ptr, ptr, i64, i64, i64, i8, i64 }
%struct.archive_string = type { ptr, i64, i64 }
%struct.tree = type { ptr, ptr, ptr, ptr, i32, i32, i32, %struct.archive_string, ptr, i64, i32, i32, i32, i32, i32, %struct.stat, %struct.stat, i32, i32, %struct.restore_time, ptr, ptr, i32, i32, i8, i8, ptr, ptr, i32, i32, i32, i32, i32, i32, i64, i64, ptr, i64 }
%struct.stat = type { i64, i64, i64, i32, i32, i32, i32, i64, i64, i64, i64, %struct.timespec, %struct.timespec, %struct.timespec, [3 x i64] }
%struct.timespec = type { i64, i64 }
%struct.restore_time = type { ptr, i64, i64, i64, i64, i32, i32 }
%struct.filesystem = type { i64, i32, i32, i32, i64, i64, i64, i64, ptr, ptr, i64 }

@.str.17 = private unnamed_addr constant [37 x i8] c"archive_read_disk_current_filesystem\00", align 1

; Function Attrs: nounwind uwtable
define dso_local i32 @archive_read_disk_current_filesystem_is_synthetic(ptr noundef %0) #0 {
  %2 = alloca i32, align 4
  %3 = alloca ptr, align 8
  %4 = alloca ptr, align 8
  %5 = alloca i32, align 4
  store ptr %0, ptr %3, align 8
  %6 = load ptr, ptr %3, align 8
  store ptr %6, ptr %4, align 8
  br label %7

7:                                                ; preds = %1
  %8 = load ptr, ptr %3, align 8
  %9 = call i32 @__archive_check_magic(ptr noundef %8, i32 noundef 195932357, i32 noundef 4, ptr noundef @.str.17)
  store i32 %9, ptr %5, align 4
  %10 = load i32, ptr %5, align 4
  %11 = icmp eq i32 %10, -30
  br i1 %11, label %12, label %13

12:                                               ; preds = %7
  store i32 -30, ptr %2, align 4
  br label %22

13:                                               ; preds = %7
  br label %14

14:                                               ; preds = %13
  %15 = load ptr, ptr %4, align 8
  %16 = getelementptr inbounds %struct.archive_read_disk, ptr %15, i32 0, i32 4
  %17 = load ptr, ptr %16, align 8
  %18 = getelementptr inbounds %struct.tree, ptr %17, i32 0, i32 26
  %19 = load ptr, ptr %18, align 8
  %20 = getelementptr inbounds %struct.filesystem, ptr %19, i32 0, i32 1
  %21 = load i32, ptr %20, align 8
  store i32 %21, ptr %2, align 4
  br label %22

22:                                               ; preds = %14, %12
  %23 = load i32, ptr %2, align 4
  ret i32 %23
}